target datalayout = "e-m:e-p270:32:32-p271:32:32-p272:64:64-i64:64-i128:128-f80:128-n8:16:32:64-S128"
target triple = "x86_64-pc-linux-gnu"

%class.XStatValue = type { ptr, ptr, i32, i32 }
%class.PaddedEnd = type { %class.PaddedEndImpl }
%class.PaddedEndImpl = type { %"struct.XCPU::XCPUAffinity", [120 x i8] }
%"struct.XCPU::XCPUAffinity" = type { ptr }
%struct.XStatCounterData = type { i64 }
%"struct.Atomic::PlatformAdd" = type { i8 }

@_ZN10XStatValue5_baseE = hidden global i64 0, align 8
@_ZN10XStatValue11_cpu_offsetE = hidden global i32 0, align 4
@_ZN4XCPU9_affinityE = external global ptr, align 8
@_ZN4XCPU4_cpuE = external thread_local global i32, align 4
@_ZN4XCPU5_selfE = external thread_local global ptr, align 8

; Function Attrs: mustprogress nounwind uwtable
define linkonce_odr hidden noundef i64 @_ZNK6Atomic11PlatformAddILm8EE14fetch_then_addImmEET_PVS3_T0_19atomic_memory_order(ptr noundef nonnull align 1 dereferenceable(1) %0, ptr noundef %1, i64 noundef %2, i32 noundef %3) #1 comdat align 2 {
  %5 = alloca ptr, align 8
  %6 = alloca ptr, align 8
  %7 = alloca i64, align 8
  %8 = alloca i32, align 4
  %9 = alloca i64, align 8
  store ptr %0, ptr %5, align 8
  store ptr %1, ptr %6, align 8
  store i64 %2, ptr %7, align 8
  store i32 %3, ptr %8, align 4
  %10 = load i64, ptr %7, align 8
  %11 = load ptr, ptr %6, align 8
  %12 = call i64 asm sideeffect "lock xaddq $0,($2)", "=r,0,r,~{cc},~{memory},~{dirflag},~{fpsr},~{flags}"(i64 %10, ptr %11) #4, !srcloc !22
  store i64 %12, ptr %9, align 8
  %13 = load i64, ptr %9, align 8
  ret i64 %13
}

; Function Attrs: mustprogress nounwind uwtable
define linkonce_odr hidden noundef i64 @_ZNK6Atomic11PlatformAddILm8EE14add_then_fetchImmEET_PVS3_T0_19atomic_memory_order(ptr noundef nonnull align 1 dereferenceable(1) %0, ptr noundef %1, i64 noundef %2, i32 noundef %3) #1 comdat align 2 {
  %5 = alloca ptr, align 8
  %6 = alloca ptr, align 8
  %7 = alloca i64, align 8
  %8 = alloca i32, align 4
  store ptr %0, ptr %5, align 8
  store ptr %1, ptr %6, align 8
  store i64 %2, ptr %7, align 8
  store i32 %3, ptr %8, align 4
  %9 = load ptr, ptr %5, align 8
  %10 = load ptr, ptr %6, align 8
  %11 = load i64, ptr %7, align 8
  %12 = load i32, ptr %8, align 4
  %13 = call noundef i64 @_ZNK6Atomic11PlatformAddILm8EE14fetch_then_addImmEET_PVS3_T0_19atomic_memory_order(ptr noundef nonnull align 1 dereferenceable(1) %9, ptr noundef %10, i64 noundef %11, i32 noundef %12)
  %14 = load i64, ptr %7, align 8
  %15 = add i64 %13, %14
  ret i64 %15
}

; Function Attrs: mustprogress nounwind uwtable
define linkonce_odr hidden noundef i64 @_ZN6Atomic7AddImplImmvE14add_then_fetchEPVmm19atomic_memory_order(ptr noundef %0, i64 noundef %1, i32 noundef %2) #1 comdat align 2 {
  %4 = alloca ptr, align 8
  %5 = alloca i64, align 8
  %6 = alloca i32, align 4
  %7 = alloca i64, align 8
  %8 = alloca %"struct.Atomic::PlatformAdd", align 1
  store ptr %0, ptr %4, align 8
  store i64 %1, ptr %5, align 8
  store i32 %2, ptr %6, align 4
  %9 = load i64, ptr %5, align 8
  store i64 %9, ptr %7, align 8
  %10 = load ptr, ptr %4, align 8
  %11 = load i64, ptr %7, align 8
  %12 = load i32, ptr %6, align 4
  %13 = call noundef i64 @_ZNK6Atomic11PlatformAddILm8EE14add_then_fetchImmEET_PVS3_T0_19atomic_memory_order(ptr noundef nonnull align 1 dereferenceable(1) %8, ptr noundef %10, i64 noundef %11, i32 noundef %12)
  ret i64 %13
}

; Function Attrs: mustprogress nounwind uwtable
define linkonce_odr hidden noundef ptr @_ZNK10XStatValue13get_cpu_localI16XStatCounterDataEEPT_j(ptr noundef nonnull align 8 dereferenceable(24) %0, i32 noundef %1) #1 comdat align 2 {
  %3 = alloca ptr, align 8
  %4 = alloca i32, align 4
  %5 = alloca i64, align 8
  %6 = alloca i64, align 8
  store ptr %0, ptr %3, align 8
  store i32 %1, ptr %4, align 4
  %7 = load ptr, ptr %3, align 8
  %8 = load i64, ptr @_ZN10XStatValue5_baseE, align 8
  %9 = load i32, ptr @_ZN10XStatValue11_cpu_offsetE, align 4
  %10 = load i32, ptr %4, align 4
  %11 = mul i32 %9, %10
  %12 = zext i32 %11 to i64
  %13 = add i64 %8, %12
  store i64 %13, ptr %5, align 8
  %14 = load i64, ptr %5, align 8
  %15 = getelementptr inbounds %class.XStatValue, ptr %7, i32 0, i32 3
  %16 = load i32, ptr %15, align 4
  %17 = zext i32 %16 to i64
  %18 = add i64 %14, %17
  store i64 %18, ptr %6, align 8
  %19 = load i64, ptr %6, align 8
  %20 = inttoptr i64 %19 to ptr
  ret ptr %20
}

; Function Attrs: mustprogress nounwind uwtable
define linkonce_odr hidden noundef i32 @_ZN4XCPU2idEv() #1 comdat align 2 {
  %1 = alloca i32, align 4
  %2 = load ptr, ptr @_ZN4XCPU9_affinityE, align 8
  %3 = call align 4 ptr @llvm.threadlocal.address.p0(ptr align 4 @_ZN4XCPU4_cpuE)
  %4 = load i32, ptr %3, align 4
  %5 = zext i32 %4 to i64
  %6 = getelementptr inbounds %class.PaddedEnd, ptr %2, i64 %5
  %7 = getelementptr inbounds %"struct.XCPU::XCPUAffinity", ptr %6, i32 0, i32 0
  %8 = load ptr, ptr %7, align 8
  %9 = call align 8 ptr @llvm.threadlocal.address.p0(ptr align 8 @_ZN4XCPU5_selfE)
  %10 = load ptr, ptr %9, align 8
  %11 = icmp eq ptr %8, %10
  br i1 %11, label %12, label %15

12:                                               ; preds = %0
  %13 = call align 4 ptr @llvm.threadlocal.address.p0(ptr align 4 @_ZN4XCPU4_cpuE)
  %14 = load i32, ptr %13, align 4
  store i32 %14, ptr %1, align 4
  br label %17

15:                                               ; preds = %0
  %16 = call noundef i32 @_ZN4XCPU7id_slowEv()
  store i32 %16, ptr %1, align 4
  br label %17

17:                                               ; preds = %15, %12
  %18 = load i32, ptr %1, align 4
  ret i32 %18
}

; Function Attrs: mustprogress nounwind uwtable
define linkonce_odr hidden noundef i64 @_ZN6Atomic3addImmEET_PVS1_T0_19atomic_memory_order(ptr noundef %0, i64 noundef %1, i32 noundef %2) #1 comdat align 2 {
  %4 = alloca ptr, align 8
  %5 = alloca i64, align 8
  %6 = alloca i32, align 4
  store ptr %0, ptr %4, align 8
  store i64 %1, ptr %5, align 8
  store i32 %2, ptr %6, align 4
  %7 = load ptr, ptr %4, align 8
  %8 = load i64, ptr %5, align 8
  %9 = load i32, ptr %6, align 4
  %10 = call noundef i64 @_ZN6Atomic7AddImplImmvE14add_then_fetchEPVmm19atomic_memory_order(ptr noundef %7, i64 noundef %8, i32 noundef %9)
  ret i64 %10
}

; Function Attrs: mustprogress nounwind uwtable
define hidden noundef ptr @_ZNK21XStatUnsampledCounter3getEv(ptr noundef nonnull align 8 dereferenceable(32) %0) #1 align 2 {
  %2 = alloca ptr, align 8
  store ptr %0, ptr %2, align 8
  %3 = load ptr, ptr %2, align 8
  %4 = call noundef i32 @_ZN4XCPU2idEv()
  %5 = call noundef ptr @_ZNK10XStatValue13get_cpu_localI16XStatCounterDataEEPT_j(ptr noundef nonnull align 8 dereferenceable(24) %3, i32 noundef %4)
  ret ptr %5
}

; Function Attrs: mustprogress nounwind uwtable
define hidden void @_Z8XStatIncRK21XStatUnsampledCounterm(ptr noundef nonnull align 8 dereferenceable(32) %0, i64 noundef %1) #1 {
  %3 = alloca ptr, align 8
  %4 = alloca i64, align 8
  %5 = alloca ptr, align 8
  store ptr %0, ptr %3, align 8
  store i64 %1, ptr %4, align 8
  %6 = load ptr, ptr %3, align 8
  %7 = call noundef ptr @_ZNK21XStatUnsampledCounter3getEv(ptr noundef nonnull align 8 dereferenceable(32) %6)
  store ptr %7, ptr %5, align 8
  %8 = load ptr, ptr %5, align 8
  %9 = getelementptr inbounds %struct.XStatCounterData, ptr %8, i32 0, i32 0
  %10 = load i64, ptr %4, align 8
  %11 = call noundef i64 @_ZN6Atomic3addImmEET_PVS1_T0_19atomic_memory_order(ptr noundef %9, i64 noundef %10, i32 noundef 8)
  ret void
}