; Function Attrs: mustprogress nounwind uwtable
define hidden void @_Z8XStatIncRK21XStatUnsampledCounterm(ptr nocapture noundef nonnull readonly align 8 dereferenceable(32) %0, i64 noundef %1) local_unnamed_addr #0 {
  %3 = load ptr, ptr @_ZN4XCPU9_affinityE, align 8
  %4 = tail call align 4 ptr @llvm.threadlocal.address.p0(ptr align 4 @_ZN4XCPU4_cpuE)
  %5 = load i32, ptr %4, align 4
  %6 = zext i32 %5 to i64
  %7 = getelementptr inbounds %class.PaddedEnd, ptr %3, i64 %6
  %8 = load ptr, ptr %7, align 8
  %9 = tail call align 8 ptr @llvm.threadlocal.address.p0(ptr align 8 @_ZN4XCPU5_selfE)
  %10 = load ptr, ptr %9, align 8
  %11 = icmp eq ptr %8, %10
  br i1 %11, label %_ZNK21XStatUnsampledCounter3getEv.exit, label %12

12:                                               ; preds = %2
  %13 = tail call noundef i32 @_ZN4XCPU7id_slowEv() #22
  br label %_ZNK21XStatUnsampledCounter3getEv.exit

_ZNK21XStatUnsampledCounter3getEv.exit:           ; preds = %2, %12
  %.0.i.i = phi i32 [ %13, %12 ], [ %5, %2 ]
  %14 = load i64, ptr @_ZN10XStatValue5_baseE, align 8
  %15 = load i32, ptr @_ZN10XStatValue11_cpu_offsetE, align 4
  %16 = mul i32 %15, %.0.i.i
  %17 = zext i32 %16 to i64
  %18 = add i64 %14, %17
  %19 = getelementptr inbounds i8, ptr %0, i64 20
  %20 = load i32, ptr %19, align 4
  %21 = zext i32 %20 to i64
  %22 = add i64 %18, %21
  %23 = inttoptr i64 %22 to ptr
  %24 = tail call noundef i64 asm sideeffect "lock xaddq $0,($2)", "=r,0,r,~{cc},~{memory},~{dirflag},~{fpsr},~{flags}"(i64 %1, ptr %23) #22, !srcloc !10
  ret void
}